; Function Attrs: mustprogress uwtable
define internal noundef nonnull ptr @_ZN7testing8internal15TestFactoryImplIN12_GLOBAL__N_155IntSpanOrderComparisonTest_SpanOfConstAndContainer_TestEE10CreateTestEv(ptr nonnull readnone align 8 captures(none) %0) unnamed_addr #4 align 2 personality ptr @__gxx_personality_v0 {
  %2 = tail call noalias noundef nonnull dereferenceable(168) ptr @_Znwm(i64 noundef 168) #31
  invoke fastcc void @_ZN12_GLOBAL__N_126IntSpanOrderComparisonTestC2Ev(ptr noundef nonnull align 8 dereferenceable(168) %2)
          to label %3 unwind label %4

3:                                                ; preds = %1
  store ptr getelementptr inbounds nuw inrange(-16, 48) (i8, ptr @_ZTVN12_GLOBAL__N_155IntSpanOrderComparisonTest_SpanOfConstAndContainer_TestE, i64 16), ptr %2, align 8, !tbaa !4
  ret ptr %2

4:                                                ; preds = %1
  %5 = landingpad { ptr, i32 }
          cleanup
  tail call void @_ZdlPvm(ptr noundef nonnull %2, i64 noundef 168) #30
  resume { ptr, i32 } %5
}